
tmp/a.out:     file format elf32-tradlittlemips

SYMBOL TABLE:
no symbols



Disassembly of section .text:

00001000 <.text>:
    1000:	08000429 	j	0x10a4
    1004:	00000000 	nop
	...
    1010:	308300ff 	andi	v1,a0,0xff
    1014:	2462ffd0 	addiu	v0,v1,-48
    1018:	304500ff 	andi	a1,v0,0xff
    101c:	2ca6000a 	sltiu	a2,a1,10
    1020:	14c0000e 	bnez	a2,0x105c
    1024:	00000000 	nop
    1028:	2467ff9f 	addiu	a3,v1,-97
    102c:	30e800ff 	andi	t0,a3,0xff
    1030:	2d09001a 	sltiu	t1,t0,26
    1034:	1520000f 	bnez	t1,0x1074
    1038:	00000000 	nop
    103c:	246affbf 	addiu	t2,v1,-65
    1040:	314b00ff 	andi	t3,t2,0xff
    1044:	2d6c001a 	sltiu	t4,t3,26
    1048:	24020001 	li	v0,1
    104c:	1580000f 	bnez	t4,0x108c
    1050:	00000000 	nop
    1054:	03e00009 	jr	ra
    1058:	00000000 	nop
    105c:	3c030001 	lui	v1,0x1
    1060:	24629068 	addiu	v0,v1,-28568
    1064:	00822845 	lsa	a1,a0,v0,0x2
    1068:	8ca2ff40 	lw	v0,-192(a1)
    106c:	03e00009 	jr	ra
    1070:	00000000 	nop
    1074:	3c0f0001 	lui	t7,0x1
    1078:	25f89000 	addiu	t8,t7,-28672
    107c:	0098c845 	lsa	t9,a0,t8,0x2
    1080:	8f22fe7c 	lw	v0,-388(t9)
    1084:	03e00009 	jr	ra
    1088:	00000000 	nop
    108c:	3c0d0001 	lui	t5,0x1
    1090:	25ae9000 	addiu	t6,t5,-28672
    1094:	008e2045 	lsa	a0,a0,t6,0x2
    1098:	8c82fefc 	lw	v0,-260(a0)
    109c:	1000ffed 	b	0x1054
    10a0:	00000000 	nop
    10a4:	27bdffd0 	addiu	sp,sp,-48
    10a8:	afbf002c 	sw	ra,44(sp)
    10ac:	afb50028 	sw	s5,40(sp)
    10b0:	afb40024 	sw	s4,36(sp)
    10b4:	afb30020 	sw	s3,32(sp)
    10b8:	afb2001c 	sw	s2,28(sp)
    10bc:	afb10018 	sw	s1,24(sp)
    10c0:	afb00014 	sw	s0,20(sp)
    10c4:	3c040001 	lui	a0,0x1
    10c8:	248490f0 	addiu	a0,a0,-28432
    10cc:	0c000566 	jal	0x1598
    10d0:	00000000 	nop
    10d4:	3c020001 	lui	v0,0x1
    10d8:	8c439098 	lw	v1,-28520(v0)
    10dc:	3c050001 	lui	a1,0x1
    10e0:	8ca69094 	lw	a2,-28524(a1)
    10e4:	8c67005c 	lw	a3,92(v1)
    10e8:	acc7005c 	sw	a3,92(a2)
    10ec:	8c680058 	lw	t0,88(v1)
    10f0:	acc80058 	sw	t0,88(a2)
    10f4:	8c690054 	lw	t1,84(v1)
    10f8:	acc90054 	sw	t1,84(a2)
    10fc:	00009025 	move	s2,zero
    1100:	3c110001 	lui	s1,0x1
    1104:	3c130001 	lui	s3,0x1
    1108:	267390d0 	addiu	s3,s3,-28464
    110c:	3c100001 	lui	s0,0x1
    1110:	3c140001 	lui	s4,0x1
    1114:	10000083 	b	0x1324
    1118:	00000000 	nop
    111c:	268490fc 	addiu	a0,s4,-28420
    1120:	0c000566 	jal	0x1598
    1124:	00000000 	nop
    1128:	26b20030 	addiu	s2,s5,48
    112c:	7c122420 	seb	a0,s2
    1130:	0c000550 	jal	0x1540
    1134:	00000000 	nop
    1138:	2404000a 	li	a0,10
    113c:	0c000550 	jal	0x1540
    1140:	00000000 	nop
    1144:	10000076 	b	0x1320
    1148:	00000000 	nop
    114c:	240c0001 	li	t4,1
    1150:	240d0010 	li	t5,16
    1154:	8e049094 	lw	a0,-28524(s0)
    1158:	00647045 	lsa	t6,v1,a0,0x2
    115c:	246ffff8 	addiu	t7,v1,-8
    1160:	01ecc004 	sllv	t8,t4,t7
    1164:	0306c824 	and	t9,t8,a2
    1168:	0019f82b 	sltu	ra,zero,t9
    116c:	addf0000 	sw	ra,0(t6)
    1170:	24630001 	addiu	v1,v1,1
    1174:	146dfff7 	bne	v1,t5,0x1154
    1178:	00000000 	nop
    117c:	7c061420 	seb	v0,a2
    1180:	00a2a807 	srav	s5,v0,a1
    1184:	00023400 	sll	a2,v0,0x10
    1188:	30a500ff 	andi	a1,a1,0xff
    118c:	00c52025 	or	a0,a2,a1
    1190:	0c0005e8 	jal	0x17a0
    1194:	00000000 	nop
    1198:	00006825 	move	t5,zero
    119c:	32a900ff 	andi	t1,s5,0xff
    11a0:	24070008 	li	a3,8
    11a4:	8e089094 	lw	t0,-28524(s0)
    11a8:	01a85045 	lsa	t2,t5,t0,0x2
    11ac:	01a95807 	srav	t3,t1,t5
    11b0:	316c0001 	andi	t4,t3,0x1
    11b4:	ad4c0000 	sw	t4,0(t2)
    11b8:	25ad0001 	addiu	t5,t5,1
    11bc:	15a7fff9 	bne	t5,a3,0x11a4
    11c0:	00000000 	nop
    11c4:	24150007 	li	s5,7
    11c8:	1000004b 	b	0x12f8
    11cc:	00000000 	nop
    11d0:	00003025 	move	a2,zero
    11d4:	240d0020 	li	t5,32
    11d8:	8e2e9098 	lw	t6,-28520(s1)
    11dc:	01c67821 	addu	t7,t6,a2
    11e0:	8e189094 	lw	t8,-28524(s0)
    11e4:	0306c821 	addu	t9,t8,a2
    11e8:	8dff0000 	lw	ra,0(t7)
    11ec:	af3f0000 	sw	ra,0(t9)
    11f0:	24c60004 	addiu	a2,a2,4
    11f4:	14cdfff8 	bne	a2,t5,0x11d8
    11f8:	00000000 	nop
    11fc:	8e299098 	lw	t1,-28520(s1)
    1200:	2525001c 	addiu	a1,t1,28
    1204:	240b0007 	li	t3,7
    1208:	24070001 	li	a3,1
    120c:	2408ffff 	li	t0,-1
    1210:	01601825 	move	v1,t3
    1214:	8caa0000 	lw	t2,0(a1)
    1218:	1147000d 	beq	t2,a3,0x1250
    121c:	00000000 	nop
    1220:	256bffff 	addiu	t3,t3,-1
    1224:	24a5fffc 	addiu	a1,a1,-4
    1228:	1568fff9 	bne	t3,t0,0x1210
    122c:	00000000 	nop
    1230:	24030007 	li	v1,7
    1234:	01201025 	move	v0,t1
    1238:	0069a805 	lsa	s5,v1,t1,0x1
    123c:	00152040 	sll	a0,s5,0x1
    1240:	00006025 	move	t4,zero
    1244:	240d0001 	li	t5,1
    1248:	10000013 	b	0x1298
    124c:	00000000 	nop
    1250:	1560fff8 	bnez	t3,0x1234
    1254:	00000000 	nop
    1258:	01606025 	move	t4,t3
    125c:	24150001 	li	s5,1
    1260:	1000001b 	b	0x12d0
    1264:	00000000 	nop
    1268:	8c580000 	lw	t8,0(v0)
    126c:	1700000e 	bnez	t8,0x12a8
    1270:	00000000 	nop
    1274:	0000a825 	move	s5,zero
    1278:	10000015 	b	0x12d0
    127c:	00000000 	nop
    1280:	2463ffff 	addiu	v1,v1,-1
    1284:	258c0001 	addiu	t4,t4,1
    1288:	24420004 	addiu	v0,v0,4
    128c:	0183302b 	sltu	a2,t4,v1
    1290:	10c0000e 	beqz	a2,0x12cc
    1294:	00000000 	nop
    1298:	00827023 	subu	t6,a0,v0
    129c:	8dcf0000 	lw	t7,0(t6)
    12a0:	11edfff1 	beq	t7,t5,0x1268
    12a4:	00000000 	nop
    12a8:	8dd90000 	lw	t9,0(t6)
    12ac:	1720fff4 	bnez	t9,0x1280
    12b0:	00000000 	nop
    12b4:	8c5f0000 	lw	ra,0(v0)
    12b8:	17edfff1 	bne	ra,t5,0x1280
    12bc:	00000000 	nop
    12c0:	0000a825 	move	s5,zero
    12c4:	10000002 	b	0x12d0
    12c8:	00000000 	nop
    12cc:	24150001 	li	s5,1
    12d0:	00154900 	sll	t1,s5,0x4
    12d4:	000c3a00 	sll	a3,t4,0x8
    12d8:	01274025 	or	t0,t1,a3
    12dc:	01035025 	or	t2,t0,v1
    12e0:	35441000 	ori	a0,t2,0x1000
    12e4:	0c0005e8 	jal	0x17a0
    12e8:	00000000 	nop
    12ec:	8e0b9094 	lw	t3,-28524(s0)
    12f0:	ad750050 	sw	s5,80(t3)
    12f4:	0000a825 	move	s5,zero
    12f8:	8e2e9098 	lw	t6,-28520(s1)
    12fc:	8e0f9094 	lw	t7,-28524(s0)
    1300:	8dc4005c 	lw	a0,92(t6)
    1304:	ade4005c 	sw	a0,92(t7)
    1308:	8dd80058 	lw	t8,88(t6)
    130c:	adf80058 	sw	t8,88(t7)
    1310:	8dd90054 	lw	t9,84(t6)
    1314:	adf90054 	sw	t9,84(t7)
    1318:	16b2ff80 	bne	s5,s2,0x111c
    131c:	00000000 	nop
    1320:	02a09025 	move	s2,s5
    1324:	8e249098 	lw	a0,-28520(s1)
    1328:	8c95005c 	lw	s5,92(a0)
    132c:	8c8a0058 	lw	t2,88(a0)
    1330:	8c8b0054 	lw	t3,84(a0)
    1334:	00156080 	sll	t4,s5,0x2
    1338:	000a6840 	sll	t5,t2,0x1
    133c:	018d7025 	or	t6,t4,t5
    1340:	01cba825 	or	s5,t6,t3
    1344:	24830020 	addiu	v1,a0,32
    1348:	00001025 	move	v0,zero
    134c:	00003025 	move	a2,zero
    1350:	240f0008 	li	t7,8
    1354:	8c780000 	lw	t8,0(v1)
    1358:	33190001 	andi	t9,t8,0x1
    135c:	0059f804 	sllv	ra,t9,v0
    1360:	00df3025 	or	a2,a2,ra
    1364:	24420001 	addiu	v0,v0,1
    1368:	24630004 	addiu	v1,v1,4
    136c:	144ffff9 	bne	v0,t7,0x1354
    1370:	00000000 	nop
    1374:	00001825 	move	v1,zero
    1378:	00002825 	move	a1,zero
    137c:	24070008 	li	a3,8
    1380:	8c880000 	lw	t0,0(a0)
    1384:	31090001 	andi	t1,t0,0x1
    1388:	00695004 	sllv	t2,t1,v1
    138c:	00aa2825 	or	a1,a1,t2
    1390:	24630001 	addiu	v1,v1,1
    1394:	24840004 	addiu	a0,a0,4
    1398:	1467fff9 	bne	v1,a3,0x1380
    139c:	00000000 	nop
    13a0:	2eab0008 	sltiu	t3,s5,8
    13a4:	1160ffd4 	beqz	t3,0x12f8
    13a8:	00000000 	nop
    13ac:	02b3a845 	lsa	s5,s5,s3,0x2
    13b0:	8eac0000 	lw	t4,0(s5)
    13b4:	01800009 	jr	t4
    13b8:	00000000 	nop
    13bc:	00001025 	move	v0,zero
    13c0:	240a0060 	li	t2,96
    13c4:	8e259098 	lw	a1,-28520(s1)
    13c8:	00a25821 	addu	t3,a1,v0
    13cc:	8e159094 	lw	s5,-28524(s0)
    13d0:	02a26021 	addu	t4,s5,v0
    13d4:	8d640000 	lw	a0,0(t3)
    13d8:	ad840000 	sw	a0,0(t4)
    13dc:	24420004 	addiu	v0,v0,4
    13e0:	144afff8 	bne	v0,t2,0x13c4
    13e4:	00000000 	nop
    13e8:	24150001 	li	s5,1
    13ec:	1000ffc2 	b	0x12f8
    13f0:	00000000 	nop
    13f4:	24090020 	li	t1,32
    13f8:	240d0040 	li	t5,64
    13fc:	8e2e9098 	lw	t6,-28520(s1)
    1400:	01c97821 	addu	t7,t6,t1
    1404:	8df80000 	lw	t8,0(t7)
    1408:	2539ffe0 	addiu	t9,t1,-32
    140c:	01d9f821 	addu	ra,t6,t9
    1410:	8fe60000 	lw	a2,0(ra)
    1414:	8e079094 	lw	a3,-28524(s0)
    1418:	00f94021 	addu	t0,a3,t9
    141c:	03061824 	and	v1,t8,a2
    1420:	ad030000 	sw	v1,0(t0)
    1424:	25290004 	addiu	t1,t1,4
    1428:	152dfff4 	bne	t1,t5,0x13fc
    142c:	00000000 	nop
    1430:	24150002 	li	s5,2
    1434:	1000ffb0 	b	0x12f8
    1438:	00000000 	nop
    143c:	24020020 	li	v0,32
    1440:	24070040 	li	a3,64
    1444:	8e289098 	lw	t0,-28520(s1)
    1448:	01021821 	addu	v1,t0,v0
    144c:	8c690000 	lw	t1,0(v1)
    1450:	244affe0 	addiu	t2,v0,-32
    1454:	010a2821 	addu	a1,t0,t2
    1458:	8cab0000 	lw	t3,0(a1)
    145c:	8e159094 	lw	s5,-28524(s0)
    1460:	02aa6021 	addu	t4,s5,t2
    1464:	012b2025 	or	a0,t1,t3
    1468:	ad840000 	sw	a0,0(t4)
    146c:	24420004 	addiu	v0,v0,4
    1470:	1447fff4 	bne	v0,a3,0x1444
    1474:	00000000 	nop
    1478:	24150003 	li	s5,3
    147c:	1000ff9e 	b	0x12f8
    1480:	00000000 	nop
    1484:	24060020 	li	a2,32
    1488:	240b0040 	li	t3,64
    148c:	8e359098 	lw	s5,-28520(s1)
    1490:	02a62021 	addu	a0,s5,a2
    1494:	8c8c0000 	lw	t4,0(a0)
    1498:	24cdffe0 	addiu	t5,a2,-32
    149c:	02ad7021 	addu	t6,s5,t5
    14a0:	8dcf0000 	lw	t7,0(t6)
    14a4:	8e189094 	lw	t8,-28524(s0)
    14a8:	030dc821 	addu	t9,t8,t5
    14ac:	018ff826 	xor	ra,t4,t7
    14b0:	af3f0000 	sw	ra,0(t9)
    14b4:	24c60004 	addiu	a2,a2,4
    14b8:	14cbfff4 	bne	a2,t3,0x148c
    14bc:	00000000 	nop
    14c0:	24150004 	li	s5,4
    14c4:	1000ff8c 	b	0x12f8
    14c8:	00000000 	nop
    14cc:	00a63804 	sllv	a3,a2,a1
    14d0:	00001025 	move	v0,zero
    14d4:	24080008 	li	t0,8
    14d8:	8e039094 	lw	v1,-28524(s0)
    14dc:	00434845 	lsa	t1,v0,v1,0x2
    14e0:	00475007 	srav	t2,a3,v0
    14e4:	31450001 	andi	a1,t2,0x1
    14e8:	ad250000 	sw	a1,0(t1)
    14ec:	24420001 	addiu	v0,v0,1
    14f0:	1448fff9 	bne	v0,t0,0x14d8
    14f4:	00000000 	nop
    14f8:	24150005 	li	s5,5
    14fc:	1000ff7e 	b	0x12f8
    1500:	00000000 	nop
    1504:	00a66806 	srlv	t5,a2,a1
    1508:	00003025 	move	a2,zero
    150c:	240e0008 	li	t6,8
    1510:	8e0f9094 	lw	t7,-28524(s0)
    1514:	00cfc045 	lsa	t8,a2,t7,0x2
    1518:	00cdc807 	srav	t9,t5,a2
    151c:	333f0001 	andi	ra,t9,0x1
    1520:	af1f0000 	sw	ra,0(t8)
    1524:	24c60001 	addiu	a2,a2,1
    1528:	14cefff9 	bne	a2,t6,0x1510
    152c:	00000000 	nop
    1530:	24150006 	li	s5,6
    1534:	1000ff70 	b	0x12f8
    1538:	00000000 	nop
    153c:	00000000 	nop
    1540:	3c020001 	lui	v0,0x1
    1544:	8c4390a8 	lw	v1,-28504(v0)
    1548:	8c650000 	lw	a1,0(v1)
    154c:	10a00006 	beqz	a1,0x1568
    1550:	00000000 	nop
    1554:	3c060001 	lui	a2,0x1
    1558:	8cc790a8 	lw	a3,-28504(a2)
    155c:	8ce80000 	lw	t0,0(a3)
    1560:	1500fffd 	bnez	t0,0x1558
    1564:	00000000 	nop
    1568:	3c090001 	lui	t1,0x1
    156c:	8d2a90a0 	lw	t2,-28512(t1)
    1570:	ad440000 	sw	a0,0(t2)
    1574:	3c040001 	lui	a0,0x1
    1578:	8c8b90a4 	lw	t3,-28508(a0)
    157c:	8d6c0000 	lw	t4,0(t3)
    1580:	15800003 	bnez	t4,0x1590
    1584:	00000000 	nop
    1588:	240d0001 	li	t5,1
    158c:	ad6d0000 	sw	t5,0(t3)
    1590:	03e00009 	jr	ra
    1594:	00000000 	nop
    1598:	80820000 	lb	v0,0(a0)
    159c:	10400016 	beqz	v0,0x15f8
    15a0:	00000000 	nop
    15a4:	3c030001 	lui	v1,0x1
    15a8:	3c060001 	lui	a2,0x1
    15ac:	1000000c 	b	0x15e0
    15b0:	00000000 	nop
    15b4:	8c6890a8 	lw	t0,-28504(v1)
    15b8:	8d090000 	lw	t1,0(t0)
    15bc:	1520fffd 	bnez	t1,0x15b4
    15c0:	00000000 	nop
    15c4:	8cca90a0 	lw	t2,-28512(a2)
    15c8:	808b0000 	lb	t3,0(a0)
    15cc:	ad4b0000 	sw	t3,0(t2)
    15d0:	24840001 	addiu	a0,a0,1
    15d4:	808c0000 	lb	t4,0(a0)
    15d8:	11800007 	beqz	t4,0x15f8
    15dc:	00000000 	nop
    15e0:	8c6590a8 	lw	a1,-28504(v1)
    15e4:	8ca70000 	lw	a3,0(a1)
    15e8:	14e0fff2 	bnez	a3,0x15b4
    15ec:	00000000 	nop
    15f0:	1000fff4 	b	0x15c4
    15f4:	00000000 	nop
    15f8:	3c040001 	lui	a0,0x1
    15fc:	8c8d90a4 	lw	t5,-28508(a0)
    1600:	240e0001 	li	t6,1
    1604:	adae0000 	sw	t6,0(t5)
    1608:	03e00009 	jr	ra
    160c:	00000000 	nop
    1610:	24020004 	li	v0,4
    1614:	3c060001 	lui	a2,0x1
    1618:	8cc390a0 	lw	v1,-28512(a2)
    161c:	00042e02 	srl	a1,a0,0x18
    1620:	ac650000 	sw	a1,0(v1)
    1624:	00042200 	sll	a0,a0,0x8
    1628:	2442ffff 	addiu	v0,v0,-1
    162c:	1440fffa 	bnez	v0,0x1618
    1630:	00000000 	nop
    1634:	03e00009 	jr	ra
    1638:	00000000 	nop
    163c:	00001025 	move	v0,zero
    1640:	18a00007 	blez	a1,0x1660
    1644:	00000000 	nop
    1648:	3c060001 	lui	a2,0x1
    164c:	3c090001 	lui	t1,0x1
    1650:	24080020 	li	t0,32
    1654:	240a000d 	li	t2,13
    1658:	1000000c 	b	0x168c
    165c:	00000000 	nop
    1660:	00001025 	move	v0,zero
    1664:	1000001b 	b	0x16d4
    1668:	00000000 	nop
    166c:	29f90009 	slti	t9,t7,9
    1670:	13200018 	beqz	t9,0x16d4
    1674:	00000000 	nop
    1678:	a08f0000 	sb	t7,0(a0)
    167c:	24840001 	addiu	a0,a0,1
    1680:	24420001 	addiu	v0,v0,1
    1684:	10a20016 	beq	a1,v0,0x16e0
    1688:	00000000 	nop
    168c:	8cc390b4 	lw	v1,-28492(a2)
    1690:	8c670000 	lw	a3,0(v1)
    1694:	14e00005 	bnez	a3,0x16ac
    1698:	00000000 	nop
    169c:	8ccb90b4 	lw	t3,-28492(a2)
    16a0:	8d6c0000 	lw	t4,0(t3)
    16a4:	1180fffd 	beqz	t4,0x169c
    16a8:	00000000 	nop
    16ac:	8d2d90b0 	lw	t5,-28496(t1)
    16b0:	8dae0000 	lw	t6,0(t5)
    16b4:	7c0e7c20 	seb	t7,t6
    16b8:	11e80006 	beq	t7,t0,0x16d4
    16bc:	00000000 	nop
    16c0:	29f8000b 	slti	t8,t7,11
    16c4:	1700ffe9 	bnez	t8,0x166c
    16c8:	00000000 	nop
    16cc:	15eaffea 	bne	t7,t2,0x1678
    16d0:	00000000 	nop
    16d4:	a0800000 	sb	zero,0(a0)
    16d8:	03e00009 	jr	ra
    16dc:	00000000 	nop
    16e0:	00a01025 	move	v0,a1
    16e4:	1000fffb 	b	0x16d4
    16e8:	00000000 	nop
    16ec:	24050004 	li	a1,4
    16f0:	00001025 	move	v0,zero
    16f4:	3c040001 	lui	a0,0x1
    16f8:	3c060001 	lui	a2,0x1
    16fc:	8c8390b4 	lw	v1,-28492(a0)
    1700:	8c670000 	lw	a3,0(v1)
    1704:	14e00005 	bnez	a3,0x171c
    1708:	00000000 	nop
    170c:	8c8890b4 	lw	t0,-28492(a0)
    1710:	8d090000 	lw	t1,0(t0)
    1714:	1120fffd 	beqz	t1,0x170c
    1718:	00000000 	nop
    171c:	8cca90b0 	lw	t2,-28496(a2)
    1720:	8d4b0000 	lw	t3,0(t2)
    1724:	00021200 	sll	v0,v0,0x8
    1728:	316c00ff 	andi	t4,t3,0xff
    172c:	01821025 	or	v0,t4,v0
    1730:	24a5ffff 	addiu	a1,a1,-1
    1734:	14a0fff1 	bnez	a1,0x16fc
    1738:	00000000 	nop
    173c:	03e00009 	jr	ra
    1740:	00000000 	nop
    1744:	3c020001 	lui	v0,0x1
    1748:	8c4390b4 	lw	v1,-28492(v0)
    174c:	8c640000 	lw	a0,0(v1)
    1750:	14800006 	bnez	a0,0x176c
    1754:	00000000 	nop
    1758:	3c050001 	lui	a1,0x1
    175c:	8ca690b4 	lw	a2,-28492(a1)
    1760:	8cc70000 	lw	a3,0(a2)
    1764:	10e0fffd 	beqz	a3,0x175c
    1768:	00000000 	nop
    176c:	3c080001 	lui	t0,0x1
    1770:	8d0990b0 	lw	t1,-28496(t0)
    1774:	8d2a0000 	lw	t2,0(t1)
    1778:	314200ff 	andi	v0,t2,0xff
    177c:	03e00009 	jr	ra
    1780:	00000000 	nop
    1784:	3c020001 	lui	v0,0x1
    1788:	8c4390b4 	lw	v1,-28492(v0)
    178c:	8c620000 	lw	v0,0(v1)
    1790:	03e00009 	jr	ra
    1794:	00000000 	nop
	...
    17a0:	3c02ffff 	lui	v0,0xffff
    17a4:	244b0100 	addiu	t3,v0,256
    17a8:	3c060001 	lui	a2,0x1
    17ac:	24c790c0 	addiu	a3,a2,-28480
    17b0:	3c05ffff 	lui	a1,0xffff
    17b4:	24a80120 	addiu	t0,a1,288
    17b8:	3083000f 	andi	v1,a0,0xf
    17bc:	00674821 	addu	t1,v1,a3
    17c0:	912a0000 	lbu	t2,0(t1)
    17c4:	ad6a0000 	sw	t2,0(t3)
    17c8:	00042102 	srl	a0,a0,0x4
    17cc:	256b0004 	addiu	t3,t3,4
    17d0:	1568fff9 	bne	t3,t0,0x17b8
    17d4:	00000000 	nop
    17d8:	03e00009 	jr	ra
    17dc:	00000000 	nop
    17e0:	03e00009 	jr	ra
    17e4:	00000000 	nop
	...


 ==== .data section ====

tmp/a.out:     file format elf32-tradlittlemips

Contents of section .data:
 9000 ee000000 3e000000 1a000000 7a000000  ....>.......z...
 9010 9e000000 8e000000 be000000 6e000000  ............n...
 9020 60000000 78000000 5e000000 1c000000  `...x...^.......
 9030 ec000000 2a000000 fc000000 ce000000  ....*...........
 9040 e6000000 8c000000 b6000000 e0000000  ................
 9050 7c000000 38000000 7e000000 26000000  |...8...~...&...
 9060 76000000 da000000 fc000000 60000000  v...........`...
 9070 da000000 f2000000 66000000 b6000000  ........f.......
 9080 be000000 e0000000 fe000000 e6000000  ................
 9090 0001ffff 8000ffff 0000ffff 00000000  ................
 90a0 3401ffff 3001ffff 2c01ffff 2801ffff  4...0...,...(...
 90b0 2401ffff 2001ffff 00000000 00000000  $... ...........
 90c0 fc60daf2 66b6bee0 fee6ee3e 1a7a9e8e  .`..f......>.z..
 90d0 d0110000 bc130000 f4130000 3c140000  ............<...
 90e0 84140000 cc140000 04150000 4c110000  ............L...
 90f0 72756e20 64656d6f 310a0000 6368616e  run demo1...chan
 9100 6765206d 6f646520 746f2000 00000000  ge mode to .....
 9110 00000000                             ....            
