
tmp/a.out:     file format elf32-tradlittlemips

SYMBOL TABLE:
no symbols



Disassembly of section .text:

00001000 <.text>:
    1000:	08000427 	j	0x109c
    1004:	00000000 	nop
	...
    1010:	308200ff 	andi	v0,a0,0xff
    1014:	2443ffd0 	addiu	v1,v0,-48
    1018:	2c65000a 	sltiu	a1,v1,10
    101c:	14a00014 	bnez	a1,0x1070
    1020:	00000000 	nop
    1024:	2446ff9f 	addiu	a2,v0,-97
    1028:	2cc7001a 	sltiu	a3,a2,26
    102c:	14e00008 	bnez	a3,0x1050
    1030:	00000000 	nop
    1034:	2448ffbf 	addiu	t0,v0,-65
    1038:	24020001 	li	v0,1
    103c:	2d09001a 	sltiu	t1,t0,26
    1040:	15200013 	bnez	t1,0x1090
    1044:	00000000 	nop
    1048:	03e00009 	jr	ra
    104c:	00000000 	nop
    1050:	2484ff9f 	addiu	a0,a0,-97
    1054:	3c0b0001 	lui	t3,0x1
    1058:	7c045420 	seb	t2,a0
    105c:	256c9000 	addiu	t4,t3,-28672
    1060:	014c6845 	lsa	t5,t2,t4,0x2
    1064:	8da20000 	lw	v0,0(t5)
    1068:	03e00009 	jr	ra
    106c:	00000000 	nop
    1070:	248effd0 	addiu	t6,a0,-48
    1074:	3c180001 	lui	t8,0x1
    1078:	7c0e7c20 	seb	t7,t6
    107c:	27199068 	addiu	t9,t8,-28568
    1080:	01f91045 	lsa	v0,t7,t9,0x2
    1084:	8c420000 	lw	v0,0(v0)
    1088:	03e00009 	jr	ra
    108c:	00000000 	nop
    1090:	2484ffbf 	addiu	a0,a0,-65
    1094:	1000ffef 	b	0x1054
    1098:	00000000 	nop
    109c:	27bdffc0 	addiu	sp,sp,-64
    10a0:	3c040001 	lui	a0,0x1
    10a4:	248490f0 	addiu	a0,a0,-28432
    10a8:	afb1001c 	sw	s1,28(sp)
    10ac:	3c110001 	lui	s1,0x1
    10b0:	afbe0038 	sw	s8,56(sp)
    10b4:	afb60030 	sw	s6,48(sp)
    10b8:	241effff 	li	s8,-1
    10bc:	afb5002c 	sw	s5,44(sp)
    10c0:	24160001 	li	s6,1
    10c4:	afb30024 	sw	s3,36(sp)
    10c8:	24150008 	li	s5,8
    10cc:	afb20020 	sw	s2,32(sp)
    10d0:	3c120001 	lui	s2,0x1
    10d4:	afb00018 	sw	s0,24(sp)
    10d8:	3c100001 	lui	s0,0x1
    10dc:	afbf003c 	sw	ra,60(sp)
    10e0:	00009825 	move	s3,zero
    10e4:	afb70034 	sw	s7,52(sp)
    10e8:	265290d0 	addiu	s2,s2,-28464
    10ec:	afb40028 	sw	s4,40(sp)
    10f0:	0c000549 	jal	0x1524
    10f4:	00000000 	nop
    10f8:	8e289098 	lw	t0,-28520(s1)
    10fc:	3c020001 	lui	v0,0x1
    1100:	8e099094 	lw	t1,-28524(s0)
    1104:	afa20010 	sw	v0,16(sp)
    1108:	8d03005c 	lw	v1,92(t0)
    110c:	ad23005c 	sw	v1,92(t1)
    1110:	8d050058 	lw	a1,88(t0)
    1114:	ad250058 	sw	a1,88(t1)
    1118:	8d060054 	lw	a2,84(t0)
    111c:	ad260054 	sw	a2,84(t1)
    1120:	8d0b005c 	lw	t3,92(t0)
    1124:	250d0020 	addiu	t5,t0,32
    1128:	8d070058 	lw	a3,88(t0)
    112c:	01a06025 	move	t4,t5
    1130:	8d0e0054 	lw	t6,84(t0)
    1134:	01a0f825 	move	ra,t5
    1138:	000b7880 	sll	t7,t3,0x2
    113c:	00001825 	move	v1,zero
    1140:	0007a040 	sll	s4,a3,0x1
    1144:	00005025 	move	t2,zero
    1148:	01f4b825 	or	s7,t7,s4
    114c:	02eec025 	or	t8,s7,t6
    1150:	0300b825 	move	s7,t8
    1154:	8ff90000 	lw	t9,0(ra)
    1158:	27ff0004 	addiu	ra,ra,4
    115c:	33240001 	andi	a0,t9,0x1
    1160:	00641004 	sllv	v0,a0,v1
    1164:	24630001 	addiu	v1,v1,1
    1168:	01425025 	or	t2,t2,v0
    116c:	1475fff9 	bne	v1,s5,0x1154
    1170:	00000000 	nop
    1174:	01001825 	move	v1,t0
    1178:	01005825 	move	t3,t0
    117c:	00002825 	move	a1,zero
    1180:	00007825 	move	t7,zero
    1184:	8d660000 	lw	a2,0(t3)
    1188:	256b0004 	addiu	t3,t3,4
    118c:	30c70001 	andi	a3,a2,0x1
    1190:	00a77004 	sllv	t6,a3,a1
    1194:	24a50001 	addiu	a1,a1,1
    1198:	01ee7825 	or	t7,t7,t6
    119c:	14b5fff9 	bne	a1,s5,0x1184
    11a0:	00000000 	nop
    11a4:	1700004b 	bnez	t8,0x12d4
    11a8:	00000000 	nop
    11ac:	01005025 	move	t2,t0
    11b0:	8d4c0000 	lw	t4,0(t2)
    11b4:	254a0004 	addiu	t2,t2,4
    11b8:	25290004 	addiu	t1,t1,4
    11bc:	ad2cfffc 	sw	t4,-4(t1)
    11c0:	154dfffb 	bne	t2,t5,0x11b0
    11c4:	00000000 	nop
    11c8:	2506001c 	addiu	a2,t0,28
    11cc:	24090007 	li	t1,7
    11d0:	8cd40000 	lw	s4,0(a2)
    11d4:	01206825 	move	t5,t1
    11d8:	129600b6 	beq	s4,s6,0x14b4
    11dc:	00000000 	nop
    11e0:	2529ffff 	addiu	t1,t1,-1
    11e4:	24c6fffc 	addiu	a2,a2,-4
    11e8:	153efff9 	bne	t1,s8,0x11d0
    11ec:	00000000 	nop
    11f0:	240d0007 	li	t5,7
    11f4:	01a84005 	lsa	t0,t5,t0,0x1
    11f8:	0000c025 	move	t8,zero
    11fc:	00085840 	sll	t3,t0,0x1
    1200:	1000000d 	b	0x1238
    1204:	00000000 	nop
    1208:	8dd40000 	lw	s4,0(t6)
    120c:	16800004 	bnez	s4,0x1220
    1210:	00000000 	nop
    1214:	8c6f0000 	lw	t7,0(v1)
    1218:	11f6000e 	beq	t7,s6,0x1254
    121c:	00000000 	nop
    1220:	25adffff 	addiu	t5,t5,-1
    1224:	27180001 	addiu	t8,t8,1
    1228:	030d282b 	sltu	a1,t8,t5
    122c:	24630004 	addiu	v1,v1,4
    1230:	10a0009a 	beqz	a1,0x149c
    1234:	00000000 	nop
    1238:	01637023 	subu	t6,t3,v1
    123c:	8dc70000 	lw	a3,0(t6)
    1240:	14f6fff1 	bne	a3,s6,0x1208
    1244:	00000000 	nop
    1248:	8c740000 	lw	s4,0(v1)
    124c:	1680ffee 	bnez	s4,0x1208
    1250:	00000000 	nop
    1254:	00182200 	sll	a0,t8,0x8
    1258:	008d1825 	or	v1,a0,t5
    125c:	34641000 	ori	a0,v1,0x1000
    1260:	0c0005bc 	jal	0x16f0
    1264:	00000000 	nop
    1268:	8e099094 	lw	t1,-28524(s0)
    126c:	8e289098 	lw	t0,-28520(s1)
    1270:	ad340050 	sw	s4,80(t1)
    1274:	8d02005c 	lw	v0,92(t0)
    1278:	ad22005c 	sw	v0,92(t1)
    127c:	8d0c0058 	lw	t4,88(t0)
    1280:	ad2c0058 	sw	t4,88(t1)
    1284:	8d0a0054 	lw	t2,84(t0)
    1288:	ad2a0054 	sw	t2,84(t1)
    128c:	12f3000e 	beq	s7,s3,0x12c8
    1290:	00000000 	nop
    1294:	8fb30010 	lw	s3,16(sp)
    1298:	26f40030 	addiu	s4,s7,48
    129c:	266490fc 	addiu	a0,s3,-28420
    12a0:	0c000549 	jal	0x1524
    12a4:	00000000 	nop
    12a8:	7c142420 	seb	a0,s4
    12ac:	0c000534 	jal	0x14d0
    12b0:	00000000 	nop
    12b4:	2404000a 	li	a0,10
    12b8:	0c000534 	jal	0x14d0
    12bc:	00000000 	nop
    12c0:	8e289098 	lw	t0,-28520(s1)
    12c4:	8e099094 	lw	t1,-28524(s0)
    12c8:	02e09825 	move	s3,s7
    12cc:	1000ff94 	b	0x1120
    12d0:	00000000 	nop
    12d4:	2f0d0008 	sltiu	t5,t8,8
    12d8:	11a0ffe6 	beqz	t5,0x1274
    12dc:	00000000 	nop
    12e0:	0312a045 	lsa	s4,t8,s2,0x2
    12e4:	8e980000 	lw	t8,0(s4)
    12e8:	03000009 	jr	t8
    12ec:	00000000 	nop
    12f0:	25290020 	addiu	t1,t1,32
    12f4:	00006025 	move	t4,zero
    12f8:	01964004 	sllv	t0,s6,t4
    12fc:	25290004 	addiu	t1,t1,4
    1300:	010ab824 	and	s7,t0,t2
    1304:	258c0001 	addiu	t4,t4,1
    1308:	0017c82b 	sltu	t9,zero,s7
    130c:	ad39fffc 	sw	t9,-4(t1)
    1310:	1595fff9 	bne	t4,s5,0x12f8
    1314:	00000000 	nop
    1318:	7c0afc20 	seb	ra,t2
    131c:	001f2400 	sll	a0,ra,0x10
    1320:	01ffa007 	srav	s4,ra,t7
    1324:	008f2025 	or	a0,a0,t7
    1328:	0c0005bc 	jal	0x16f0
    132c:	00000000 	nop
    1330:	8e099094 	lw	t1,-28524(s0)
    1334:	328200ff 	andi	v0,s4,0xff
    1338:	00001825 	move	v1,zero
    133c:	01205825 	move	t3,t1
    1340:	00625007 	srav	t2,v0,v1
    1344:	256b0004 	addiu	t3,t3,4
    1348:	31460001 	andi	a2,t2,0x1
    134c:	24630001 	addiu	v1,v1,1
    1350:	ad66fffc 	sw	a2,-4(t3)
    1354:	1475fffa 	bne	v1,s5,0x1340
    1358:	00000000 	nop
    135c:	8e289098 	lw	t0,-28520(s1)
    1360:	24170007 	li	s7,7
    1364:	1000ffc3 	b	0x1274
    1368:	00000000 	nop
    136c:	01ea3806 	srlv	a3,t2,t7
    1370:	01202825 	move	a1,t1
    1374:	00007825 	move	t7,zero
    1378:	01e77007 	srav	t6,a3,t7
    137c:	24a50004 	addiu	a1,a1,4
    1380:	31cd0001 	andi	t5,t6,0x1
    1384:	25ef0001 	addiu	t7,t7,1
    1388:	acadfffc 	sw	t5,-4(a1)
    138c:	15f5fffa 	bne	t7,s5,0x1378
    1390:	00000000 	nop
    1394:	24170006 	li	s7,6
    1398:	1000ffb6 	b	0x1274
    139c:	00000000 	nop
    13a0:	0120c825 	move	t9,t1
    13a4:	250d0040 	addiu	t5,t0,64
    13a8:	8d850000 	lw	a1,0(t4)
    13ac:	27390004 	addiu	t9,t9,4
    13b0:	258c0004 	addiu	t4,t4,4
    13b4:	8d98ffdc 	lw	t8,-36(t4)
    13b8:	00b8f824 	and	ra,a1,t8
    13bc:	af3ffffc 	sw	ra,-4(t9)
    13c0:	158dfff9 	bne	t4,t5,0x13a8
    13c4:	00000000 	nop
    13c8:	24170002 	li	s7,2
    13cc:	1000ffa9 	b	0x1274
    13d0:	00000000 	nop
    13d4:	01201825 	move	v1,t1
    13d8:	25140040 	addiu	s4,t0,64
    13dc:	8d820000 	lw	v0,0(t4)
    13e0:	24630004 	addiu	v1,v1,4
    13e4:	258c0004 	addiu	t4,t4,4
    13e8:	8d8affdc 	lw	t2,-36(t4)
    13ec:	004a3026 	xor	a2,v0,t2
    13f0:	ac66fffc 	sw	a2,-4(v1)
    13f4:	1594fff9 	bne	t4,s4,0x13dc
    13f8:	00000000 	nop
    13fc:	24170004 	li	s7,4
    1400:	1000ff9c 	b	0x1274
    1404:	00000000 	nop
    1408:	01201025 	move	v0,t1
    140c:	25140060 	addiu	s4,t0,96
    1410:	8c640000 	lw	a0,0(v1)
    1414:	24630004 	addiu	v1,v1,4
    1418:	24420004 	addiu	v0,v0,4
    141c:	ac44fffc 	sw	a0,-4(v0)
    1420:	1683fffb 	bne	s4,v1,0x1410
    1424:	00000000 	nop
    1428:	24170001 	li	s7,1
    142c:	1000ff91 	b	0x1274
    1430:	00000000 	nop
    1434:	01eac004 	sllv	t8,t2,t7
    1438:	01202025 	move	a0,t1
    143c:	0000c825 	move	t9,zero
    1440:	03386007 	srav	t4,t8,t9
    1444:	24840004 	addiu	a0,a0,4
    1448:	319f0001 	andi	ra,t4,0x1
    144c:	27390001 	addiu	t9,t9,1
    1450:	ac9ffffc 	sw	ra,-4(a0)
    1454:	1735fffa 	bne	t9,s5,0x1440
    1458:	00000000 	nop
    145c:	24170005 	li	s7,5
    1460:	1000ff84 	b	0x1274
    1464:	00000000 	nop
    1468:	01207025 	move	t6,t1
    146c:	250b0040 	addiu	t3,t0,64
    1470:	8d970000 	lw	s7,0(t4)
    1474:	25ce0004 	addiu	t6,t6,4
    1478:	258c0004 	addiu	t4,t4,4
    147c:	8d87ffdc 	lw	a3,-36(t4)
    1480:	02e77825 	or	t7,s7,a3
    1484:	adcffffc 	sw	t7,-4(t6)
    1488:	158bfff9 	bne	t4,t3,0x1470
    148c:	00000000 	nop
    1490:	24170003 	li	s7,3
    1494:	1000ff77 	b	0x1274
    1498:	00000000 	nop
    149c:	0018ca00 	sll	t9,t8,0x8
    14a0:	24140001 	li	s4,1
    14a4:	032df825 	or	ra,t9,t5
    14a8:	37e41010 	ori	a0,ra,0x1010
    14ac:	1000ff6c 	b	0x1260
    14b0:	00000000 	nop
    14b4:	1520ff4f 	bnez	t1,0x11f4
    14b8:	00000000 	nop
    14bc:	24041010 	li	a0,4112
    14c0:	1000ff67 	b	0x1260
    14c4:	00000000 	nop
	...
    14d0:	3c030001 	lui	v1,0x1
    14d4:	8c6290a8 	lw	v0,-28504(v1)
    14d8:	8c450000 	lw	a1,0(v0)
    14dc:	10a00005 	beqz	a1,0x14f4
    14e0:	00000000 	nop
    14e4:	8c6690a8 	lw	a2,-28504(v1)
    14e8:	8cc70000 	lw	a3,0(a2)
    14ec:	14e0fffd 	bnez	a3,0x14e4
    14f0:	00000000 	nop
    14f4:	3c080001 	lui	t0,0x1
    14f8:	3c0a0001 	lui	t2,0x1
    14fc:	8d0990a0 	lw	t1,-28512(t0)
    1500:	8d4b90a4 	lw	t3,-28508(t2)
    1504:	ad240000 	sw	a0,0(t1)
    1508:	8d640000 	lw	a0,0(t3)
    150c:	14800003 	bnez	a0,0x151c
    1510:	00000000 	nop
    1514:	240c0001 	li	t4,1
    1518:	ad6c0000 	sw	t4,0(t3)
    151c:	03e00009 	jr	ra
    1520:	00000000 	nop
    1524:	80820000 	lb	v0,0(a0)
    1528:	10400010 	beqz	v0,0x156c
    152c:	00000000 	nop
    1530:	3c0b0001 	lui	t3,0x1
    1534:	3c0c0001 	lui	t4,0x1
    1538:	10000001 	b	0x1540
    153c:	00000000 	nop
    1540:	8d6590a8 	lw	a1,-28504(t3)
    1544:	8ca70000 	lw	a3,0(a1)
    1548:	14e0fffd 	bnez	a3,0x1540
    154c:	00000000 	nop
    1550:	80880000 	lb	t0,0(a0)
    1554:	24840001 	addiu	a0,a0,1
    1558:	8d8990a0 	lw	t1,-28512(t4)
    155c:	ad280000 	sw	t0,0(t1)
    1560:	808a0000 	lb	t2,0(a0)
    1564:	1540fff6 	bnez	t2,0x1540
    1568:	00000000 	nop
    156c:	3c030001 	lui	v1,0x1
    1570:	24060001 	li	a2,1
    1574:	8c6490a4 	lw	a0,-28508(v1)
    1578:	ac860000 	sw	a2,0(a0)
    157c:	03e00009 	jr	ra
    1580:	00000000 	nop
    1584:	3c020001 	lui	v0,0x1
    1588:	24060004 	li	a2,4
    158c:	8c4590a0 	lw	a1,-28512(v0)
    1590:	00041e02 	srl	v1,a0,0x18
    1594:	24c6ffff 	addiu	a2,a2,-1
    1598:	aca30000 	sw	v1,0(a1)
    159c:	00042200 	sll	a0,a0,0x8
    15a0:	14c0fffb 	bnez	a2,0x1590
    15a4:	00000000 	nop
    15a8:	03e00009 	jr	ra
    15ac:	00000000 	nop
    15b0:	00001025 	move	v0,zero
    15b4:	18a0001b 	blez	a1,0x1624
    15b8:	00000000 	nop
    15bc:	3c060001 	lui	a2,0x1
    15c0:	3c090001 	lui	t1,0x1
    15c4:	24080020 	li	t0,32
    15c8:	240a000d 	li	t2,13
    15cc:	10000001 	b	0x15d4
    15d0:	00000000 	nop
    15d4:	8cc390b4 	lw	v1,-28492(a2)
    15d8:	8c670000 	lw	a3,0(v1)
    15dc:	10e0fffd 	beqz	a3,0x15d4
    15e0:	00000000 	nop
    15e4:	8d2b90b0 	lw	t3,-28496(t1)
    15e8:	8d6c0000 	lw	t4,0(t3)
    15ec:	7c0c6c20 	seb	t5,t4
    15f0:	11a8000c 	beq	t5,t0,0x1624
    15f4:	00000000 	nop
    15f8:	29ae000b 	slti	t6,t5,11
    15fc:	11c0000c 	beqz	t6,0x1630
    1600:	00000000 	nop
    1604:	29af0009 	slti	t7,t5,9
    1608:	11e00006 	beqz	t7,0x1624
    160c:	00000000 	nop
    1610:	24420001 	addiu	v0,v0,1
    1614:	a08d0000 	sb	t5,0(a0)
    1618:	24840001 	addiu	a0,a0,1
    161c:	14a2ffed 	bne	a1,v0,0x15d4
    1620:	00000000 	nop
    1624:	a0800000 	sb	zero,0(a0)
    1628:	03e00009 	jr	ra
    162c:	00000000 	nop
    1630:	15aafff7 	bne	t5,t2,0x1610
    1634:	00000000 	nop
    1638:	a0800000 	sb	zero,0(a0)
    163c:	03e00009 	jr	ra
    1640:	00000000 	nop
    1644:	24050004 	li	a1,4
    1648:	00001025 	move	v0,zero
    164c:	3c040001 	lui	a0,0x1
    1650:	3c060001 	lui	a2,0x1
    1654:	10000001 	b	0x165c
    1658:	00000000 	nop
    165c:	8c8390b4 	lw	v1,-28492(a0)
    1660:	8c670000 	lw	a3,0(v1)
    1664:	10e0fffd 	beqz	a3,0x165c
    1668:	00000000 	nop
    166c:	8cc890b0 	lw	t0,-28496(a2)
    1670:	00021200 	sll	v0,v0,0x8
    1674:	24a5ffff 	addiu	a1,a1,-1
    1678:	8d090000 	lw	t1,0(t0)
    167c:	312a00ff 	andi	t2,t1,0xff
    1680:	01421025 	or	v0,t2,v0
    1684:	14a0fff5 	bnez	a1,0x165c
    1688:	00000000 	nop
    168c:	03e00009 	jr	ra
    1690:	00000000 	nop
    1694:	3c030001 	lui	v1,0x1
    1698:	8c6290b4 	lw	v0,-28492(v1)
    169c:	8c440000 	lw	a0,0(v0)
    16a0:	14800005 	bnez	a0,0x16b8
    16a4:	00000000 	nop
    16a8:	8c6590b4 	lw	a1,-28492(v1)
    16ac:	8ca60000 	lw	a2,0(a1)
    16b0:	10c0fffd 	beqz	a2,0x16a8
    16b4:	00000000 	nop
    16b8:	3c070001 	lui	a3,0x1
    16bc:	8ce890b0 	lw	t0,-28496(a3)
    16c0:	8d090000 	lw	t1,0(t0)
    16c4:	312200ff 	andi	v0,t1,0xff
    16c8:	03e00009 	jr	ra
    16cc:	00000000 	nop
    16d0:	3c020001 	lui	v0,0x1
    16d4:	8c4390b4 	lw	v1,-28492(v0)
    16d8:	8c620000 	lw	v0,0(v1)
    16dc:	03e00009 	jr	ra
    16e0:	00000000 	nop
	...
    16f0:	3c05ffff 	lui	a1,0xffff
    16f4:	3c060001 	lui	a2,0x1
    16f8:	24a20100 	addiu	v0,a1,256
    16fc:	24c790c0 	addiu	a3,a2,-28480
    1700:	24a80120 	addiu	t0,a1,288
    1704:	3083000f 	andi	v1,a0,0xf
    1708:	24420004 	addiu	v0,v0,4
    170c:	00e34821 	addu	t1,a3,v1
    1710:	00042102 	srl	a0,a0,0x4
    1714:	912a0000 	lbu	t2,0(t1)
    1718:	ac4afffc 	sw	t2,-4(v0)
    171c:	1448fff9 	bne	v0,t0,0x1704
    1720:	00000000 	nop
    1724:	03e00009 	jr	ra
    1728:	00000000 	nop
    172c:	03e00009 	jr	ra
    1730:	00000000 	nop
	...


 ==== .data section ====

tmp/a.out:     file format elf32-tradlittlemips

Contents of section .data:
 9000 ee000000 3e000000 1a000000 7a000000  ....>.......z...
 9010 9e000000 8e000000 be000000 6e000000  ............n...
 9020 60000000 78000000 5e000000 1c000000  `...x...^.......
 9030 ec000000 2a000000 fc000000 ce000000  ....*...........
 9040 e6000000 8c000000 b6000000 e0000000  ................
 9050 7c000000 38000000 7e000000 26000000  |...8...~...&...
 9060 76000000 da000000 fc000000 60000000  v...........`...
 9070 da000000 f2000000 66000000 b6000000  ........f.......
 9080 be000000 e0000000 fe000000 e6000000  ................
 9090 0001ffff 8000ffff 0000ffff 00000000  ................
 90a0 3401ffff 3001ffff 2c01ffff 2801ffff  4...0...,...(...
 90b0 2401ffff 2001ffff 00000000 00000000  $... ...........
 90c0 fc60daf2 66b6bee0 fee6ee3e 1a7a9e8e  .`..f......>.z..
 90d0 74120000 08140000 a0130000 68140000  t...........h...
 90e0 d4130000 34140000 6c130000 f0120000  ....4...l.......
 90f0 72756e20 64656d6f 310a0000 6368616e  run demo1...chan
 9100 6765206d 6f646520 746f2000 00000000  ge mode to .....
 9110 00000000                             ....            
